; Function Attrs: mustprogress uwtable
define hidden void @_ZNK4cvc58internal13FloatingPoint3subERKNS0_12RoundingModeERKS1_(ptr dead_on_unwind noalias writable writeonly sret(%"class.cvc5::internal::FloatingPoint") align 8 captures(none) %0, ptr noundef nonnull readonly align 8 captures(none) dereferenceable(8) %1, ptr noundef nonnull align 4 dereferenceable(4) %2, ptr noundef nonnull readonly align 8 captures(none) dereferenceable(8) %3) local_unnamed_addr #3 align 2 personality ptr @__gxx_personality_v0 {
  %5 = tail call noalias noundef nonnull dereferenceable(64) ptr @_Znwm(i64 noundef 64) #17
  %6 = load ptr, ptr %1, align 8, !tbaa !3
  %7 = load ptr, ptr %3, align 8, !tbaa !3
  invoke void @_ZNK4cvc58internal20FloatingPointLiteral3subERKNS0_12RoundingModeERKS1_(ptr dead_on_unwind nonnull writable sret(%"class.cvc5::internal::FloatingPointLiteral") align 8 %5, ptr noundef nonnull align 8 dereferenceable(64) %6, ptr noundef nonnull align 4 dereferenceable(4) %2, ptr noundef nonnull align 8 dereferenceable(64) %7)
          to label %8 unwind label %9

8:                                                ; preds = %4
  store ptr %5, ptr %0, align 8, !tbaa !3
  ret void

9:                                                ; preds = %4
  %10 = landingpad { ptr, i32 }
          cleanup
  tail call void @_ZdlPvm(ptr noundef nonnull %5, i64 noundef 64) #18
  resume { ptr, i32 } %10
}